; Function Attrs: mustprogress nofree norecurse nosync nounwind willreturn memory(read, inaccessiblemem: none) uwtable
define noundef range(i32 1, 4) i32 @_ZNK5arrow9ArraySpan11num_buffersEv(ptr noundef nonnull readonly align 8 captures(none) dereferenceable(128) %0) local_unnamed_addr #8 align 2 {
  br label %tailrecurse.i

tailrecurse.i:                                    ; preds = %4, %1
  %.tr.i.in = phi ptr [ %0, %1 ], [ %5, %4 ]
  %.tr.i = load ptr, ptr %.tr.i.in, align 8, !tbaa !256
  %2 = getelementptr inbounds nuw i8, ptr %.tr.i, i64 40
  %3 = load i32, ptr %2, align 8, !tbaa !71
  switch i32 %3, label %_ZN5arrow12_GLOBAL__N_113GetNumBuffersERKNS_8DataTypeE.exit [
    i32 0, label %_ZN5arrow12_GLOBAL__N_113GetNumBuffersERKNS_8DataTypeE.exit.loopexit
    i32 26, label %_ZN5arrow12_GLOBAL__N_113GetNumBuffersERKNS_8DataTypeE.exit.loopexit
    i32 32, label %_ZN5arrow12_GLOBAL__N_113GetNumBuffersERKNS_8DataTypeE.exit.loopexit
    i32 38, label %_ZN5arrow12_GLOBAL__N_113GetNumBuffersERKNS_8DataTypeE.exit.loopexit
    i32 14, label %_ZN5arrow12_GLOBAL__N_113GetNumBuffersERKNS_8DataTypeE.exit.loopexit3
    i32 35, label %_ZN5arrow12_GLOBAL__N_113GetNumBuffersERKNS_8DataTypeE.exit.loopexit3
    i32 13, label %_ZN5arrow12_GLOBAL__N_113GetNumBuffersERKNS_8DataTypeE.exit.loopexit3
    i32 34, label %_ZN5arrow12_GLOBAL__N_113GetNumBuffersERKNS_8DataTypeE.exit.loopexit3
    i32 39, label %_ZN5arrow12_GLOBAL__N_113GetNumBuffersERKNS_8DataTypeE.exit.loopexit3
    i32 40, label %_ZN5arrow12_GLOBAL__N_113GetNumBuffersERKNS_8DataTypeE.exit.loopexit3
    i32 28, label %_ZN5arrow12_GLOBAL__N_113GetNumBuffersERKNS_8DataTypeE.exit.loopexit3
    i32 41, label %_ZN5arrow12_GLOBAL__N_113GetNumBuffersERKNS_8DataTypeE.exit.loopexit3
    i32 42, label %_ZN5arrow12_GLOBAL__N_113GetNumBuffersERKNS_8DataTypeE.exit.loopexit3
    i32 31, label %4
  ]

4:                                                ; preds = %tailrecurse.i
  %5 = getelementptr inbounds nuw i8, ptr %.tr.i, i64 72
  br label %tailrecurse.i

_ZN5arrow12_GLOBAL__N_113GetNumBuffersERKNS_8DataTypeE.exit.loopexit: ; preds = %tailrecurse.i, %tailrecurse.i, %tailrecurse.i, %tailrecurse.i
  br label %_ZN5arrow12_GLOBAL__N_113GetNumBuffersERKNS_8DataTypeE.exit

_ZN5arrow12_GLOBAL__N_113GetNumBuffersERKNS_8DataTypeE.exit.loopexit3: ; preds = %tailrecurse.i, %tailrecurse.i, %tailrecurse.i, %tailrecurse.i, %tailrecurse.i, %tailrecurse.i, %tailrecurse.i, %tailrecurse.i, %tailrecurse.i
  br label %_ZN5arrow12_GLOBAL__N_113GetNumBuffersERKNS_8DataTypeE.exit

_ZN5arrow12_GLOBAL__N_113GetNumBuffersERKNS_8DataTypeE.exit: ; preds = %tailrecurse.i, %_ZN5arrow12_GLOBAL__N_113GetNumBuffersERKNS_8DataTypeE.exit.loopexit3, %_ZN5arrow12_GLOBAL__N_113GetNumBuffersERKNS_8DataTypeE.exit.loopexit
  %.0.i = phi i32 [ 1, %_ZN5arrow12_GLOBAL__N_113GetNumBuffersERKNS_8DataTypeE.exit.loopexit ], [ 3, %_ZN5arrow12_GLOBAL__N_113GetNumBuffersERKNS_8DataTypeE.exit.loopexit3 ], [ 2, %tailrecurse.i ]
  ret i32 %.0.i
}